libkonsoleapp.so.1:_Z14characterWidthj
libkonsoleapp.so.1:_Z20_txnal_cow_string_D1Pv
libkonsoleapp.so.1:_Z23_txnal_cow_string_c_strPKv
libkonsoleapp.so.1:_Z23_txnal_sso_string_c_strPKv
libkonsoleapp.so.1:_Z26_txnal_logic_error_get_msgPv
libkonsoleapp.so.1:_Z27_txnal_cow_string_D1_commitPv
libkonsoleapp.so.1:_Z28_txnal_runtime_error_get_msgPv
libkonsoleapp.so.1:_Z35_txnal_cow_string_C1_for_exceptionsPvPKcS_
libkonsoleapp.so.1:_ZGTtNKSt11logic_error4whatEv
libkonsoleapp.so.1:_ZGTtNKSt13bad_exception4whatEv
libkonsoleapp.so.1:_ZGTtNKSt13bad_exceptionD1Ev
libkonsoleapp.so.1:_ZGTtNKSt13runtime_error4whatEv
libkonsoleapp.so.1:_ZGTtNKSt9exception4whatEv
libkonsoleapp.so.1:_ZGTtNKSt9exceptionD1Ev
libkonsoleapp.so.1:_ZGTtNSt11logic_errorC1EPKc
libkonsoleapp.so.1:_ZGTtNSt11logic_errorC1ERKNSt7__cxx1112basic_stringIcSt11char_traitsIcESaIcEEE
libkonsoleapp.so.1:_ZGTtNSt11logic_errorC2EPKc
libkonsoleapp.so.1:_ZGTtNSt11logic_errorC2ERKNSt7__cxx1112basic_stringIcSt11char_traitsIcESaIcEEE
libkonsoleapp.so.1:_ZGTtNSt11logic_errorD0Ev
libkonsoleapp.so.1:_ZGTtNSt11logic_errorD1Ev
libkonsoleapp.so.1:_ZGTtNSt11logic_errorD2Ev
libkonsoleapp.so.1:_ZGTtNSt11range_errorC1EPKc
libkonsoleapp.so.1:_ZGTtNSt11range_errorC1ERKNSt7__cxx1112basic_stringIcSt11char_traitsIcESaIcEEE
libkonsoleapp.so.1:_ZGTtNSt11range_errorC2EPKc
libkonsoleapp.so.1:_ZGTtNSt11range_errorC2ERKNSt7__cxx1112basic_stringIcSt11char_traitsIcESaIcEEE
libkonsoleapp.so.1:_ZGTtNSt11range_errorD0Ev
libkonsoleapp.so.1:_ZGTtNSt11range_errorD1Ev
libkonsoleapp.so.1:_ZGTtNSt11range_errorD2Ev
libkonsoleapp.so.1:_ZGTtNSt12domain_errorC1EPKc
libkonsoleapp.so.1:_ZGTtNSt12domain_errorC1ERKNSt7__cxx1112basic_stringIcSt11char_traitsIcESaIcEEE
libkonsoleapp.so.1:_ZGTtNSt12domain_errorC2EPKc
libkonsoleapp.so.1:_ZGTtNSt12domain_errorC2ERKNSt7__cxx1112basic_stringIcSt11char_traitsIcESaIcEEE
libkonsoleapp.so.1:_ZGTtNSt12domain_errorD0Ev
libkonsoleapp.so.1:_ZGTtNSt12domain_errorD1Ev
libkonsoleapp.so.1:_ZGTtNSt12domain_errorD2Ev
libkonsoleapp.so.1:_ZGTtNSt12length_errorC1EPKc
libkonsoleapp.so.1:_ZGTtNSt12length_errorC1ERKNSt7__cxx1112basic_stringIcSt11char_traitsIcESaIcEEE
libkonsoleapp.so.1:_ZGTtNSt12length_errorC2EPKc
libkonsoleapp.so.1:_ZGTtNSt12length_errorC2ERKNSt7__cxx1112basic_stringIcSt11char_traitsIcESaIcEEE
libkonsoleapp.so.1:_ZGTtNSt12length_errorD0Ev
libkonsoleapp.so.1:_ZGTtNSt12length_errorD1Ev
libkonsoleapp.so.1:_ZGTtNSt12length_errorD2Ev
libkonsoleapp.so.1:_ZGTtNSt12out_of_rangeC1EPKc
libkonsoleapp.so.1:_ZGTtNSt12out_of_rangeC1ERKNSt7__cxx1112basic_stringIcSt11char_traitsIcESaIcEEE
libkonsoleapp.so.1:_ZGTtNSt12out_of_rangeC2EPKc
libkonsoleapp.so.1:_ZGTtNSt12out_of_rangeC2ERKNSt7__cxx1112basic_stringIcSt11char_traitsIcESaIcEEE
libkonsoleapp.so.1:_ZGTtNSt12out_of_rangeD0Ev
libkonsoleapp.so.1:_ZGTtNSt12out_of_rangeD1Ev
libkonsoleapp.so.1:_ZGTtNSt12out_of_rangeD2Ev
libkonsoleapp.so.1:_ZGTtNSt13runtime_errorC1EPKc
libkonsoleapp.so.1:_ZGTtNSt13runtime_errorC1ERKNSt7__cxx1112basic_stringIcSt11char_traitsIcESaIcEEE
libkonsoleapp.so.1:_ZGTtNSt13runtime_errorC2EPKc
libkonsoleapp.so.1:_ZGTtNSt13runtime_errorC2ERKNSt7__cxx1112basic_stringIcSt11char_traitsIcESaIcEEE
libkonsoleapp.so.1:_ZGTtNSt13runtime_errorD0Ev
libkonsoleapp.so.1:_ZGTtNSt13runtime_errorD1Ev
libkonsoleapp.so.1:_ZGTtNSt13runtime_errorD2Ev
libkonsoleapp.so.1:_ZGTtNSt14overflow_errorC1EPKc
libkonsoleapp.so.1:_ZGTtNSt14overflow_errorC1ERKNSt7__cxx1112basic_stringIcSt11char_traitsIcESaIcEEE
libkonsoleapp.so.1:_ZGTtNSt14overflow_errorC2EPKc
libkonsoleapp.so.1:_ZGTtNSt14overflow_errorC2ERKNSt7__cxx1112basic_stringIcSt11char_traitsIcESaIcEEE
libkonsoleapp.so.1:_ZGTtNSt14overflow_errorD0Ev
libkonsoleapp.so.1:_ZGTtNSt14overflow_errorD1Ev
libkonsoleapp.so.1:_ZGTtNSt14overflow_errorD2Ev
libkonsoleapp.so.1:_ZGTtNSt15underflow_errorC1EPKc
libkonsoleapp.so.1:_ZGTtNSt15underflow_errorC1ERKNSt7__cxx1112basic_stringIcSt11char_traitsIcESaIcEEE
libkonsoleapp.so.1:_ZGTtNSt15underflow_errorC2EPKc
libkonsoleapp.so.1:_ZGTtNSt15underflow_errorC2ERKNSt7__cxx1112basic_stringIcSt11char_traitsIcESaIcEEE
libkonsoleapp.so.1:_ZGTtNSt15underflow_errorD0Ev
libkonsoleapp.so.1:_ZGTtNSt15underflow_errorD1Ev
libkonsoleapp.so.1:_ZGTtNSt15underflow_errorD2Ev
libkonsoleapp.so.1:_ZGTtNSt16invalid_argumentC1EPKc
libkonsoleapp.so.1:_ZGTtNSt16invalid_argumentC1ERKNSt7__cxx1112basic_stringIcSt11char_traitsIcESaIcEEE
libkonsoleapp.so.1:_ZGTtNSt16invalid_argumentC2EPKc
libkonsoleapp.so.1:_ZGTtNSt16invalid_argumentC2ERKNSt7__cxx1112basic_stringIcSt11char_traitsIcESaIcEEE
libkonsoleapp.so.1:_ZGTtNSt16invalid_argumentD0Ev
libkonsoleapp.so.1:_ZGTtNSt16invalid_argumentD1Ev
libkonsoleapp.so.1:_ZGTtNSt16invalid_argumentD2Ev
libkonsoleapp.so.1:_ZN10__cxxabiv111__terminateEPFvvE
libkonsoleapp.so.1:_ZN10__cxxabiv112__unexpectedEPFvvE
libkonsoleapp.so.1:_ZN10__cxxabiv115__forced_unwindD0Ev
libkonsoleapp.so.1:_ZN10__cxxabiv115__forced_unwindD1Ev
libkonsoleapp.so.1:_ZN10__cxxabiv115__forced_unwindD2Ev
libkonsoleapp.so.1:_ZN10__cxxabiv117__class_type_infoD0Ev
libkonsoleapp.so.1:_ZN10__cxxabiv117__class_type_infoD1Ev
libkonsoleapp.so.1:_ZN10__cxxabiv117__class_type_infoD2Ev
libkonsoleapp.so.1:_ZN10__cxxabiv119__foreign_exceptionD0Ev
libkonsoleapp.so.1:_ZN10__cxxabiv119__foreign_exceptionD1Ev
libkonsoleapp.so.1:_ZN10__cxxabiv119__foreign_exceptionD2Ev
libkonsoleapp.so.1:_ZN10__cxxabiv120__si_class_type_infoD0Ev
libkonsoleapp.so.1:_ZN10__cxxabiv120__si_class_type_infoD1Ev
libkonsoleapp.so.1:_ZN10__cxxabiv120__si_class_type_infoD2Ev
libkonsoleapp.so.1:_ZN10__cxxabiv121__vmi_class_type_infoD0Ev
libkonsoleapp.so.1:_ZN10__cxxabiv121__vmi_class_type_infoD1Ev
libkonsoleapp.so.1:_ZN10__cxxabiv121__vmi_class_type_infoD2Ev
libkonsoleapp.so.1:_ZN7Konsole10MainWindow10queryCloseEv
libkonsoleapp.so.1:_ZN7Konsole10MainWindow11eventFilterEP7QObjectP6QEvent
libkonsoleapp.so.1:_ZN7Konsole10MainWindow11qt_metacallEN11QMetaObject4CallEiPPv
libkonsoleapp.so.1:_ZN7Konsole10MainWindow11qt_metacastEPKc
libkonsoleapp.so.1:_ZN7Konsole10MainWindow12setupActionsEv
libkonsoleapp.so.1:_ZN7Konsole10MainWindow13createSessionE28QExplicitlySharedDataPointerINS_7ProfileEERK7QString
libkonsoleapp.so.1:_ZN7Konsole10MainWindow14newFromProfileERK28QExplicitlySharedDataPointerINS_7ProfileEE
libkonsoleapp.so.1:_ZN7Konsole10MainWindow14readPropertiesERK12KConfigGroup
libkonsoleapp.so.1:_ZN7Konsole10MainWindow14savePropertiesER12KConfigGroup
libkonsoleapp.so.1:_ZN7Konsole10MainWindow14setProfileListEPNS_11ProfileListE
libkonsoleapp.so.1:_ZN7Konsole10MainWindow14viewFullScreenEb
libkonsoleapp.so.1:_ZN7Konsole10MainWindow15activateMenuBarEv
libkonsoleapp.so.1:_ZN7Konsole10MainWindow16createSSHSessionE28QExplicitlySharedDataPointerINS_7ProfileEERK4QUrl
libkonsoleapp.so.1:_ZN7Konsole10MainWindow16newWindowRequestERK28QExplicitlySharedDataPointerINS_7ProfileEERK7QString
libkonsoleapp.so.1:_ZN7Konsole10MainWindow16updateWindowIconEv
libkonsoleapp.so.1:_ZN7Konsole10MainWindow17activeViewChangedEPNS_17SessionControllerE
libkonsoleapp.so.1:_ZN7Konsole10MainWindow17terminalsDetachedEPNS_12ViewSplitterE5QHashIPNS_15TerminalDisplayEPNS_7SessionEE
libkonsoleapp.so.1:_ZN7Konsole10MainWindow18focusNextPrevChildEb
libkonsoleapp.so.1:_ZN7Konsole10MainWindow18profileListChangedERK5QListIP7QActionE
libkonsoleapp.so.1:_ZN7Konsole10MainWindow18showSettingsDialogEb
libkonsoleapp.so.1:_ZN7Konsole10MainWindow19showShortcutsDialogEv
libkonsoleapp.so.1:_ZN7Konsole10MainWindow19syncActiveShortcutsEP17KActionCollectionPKS1_
libkonsoleapp.so.1:_ZN7Konsole10MainWindow19updateWindowCaptionEv
libkonsoleapp.so.1:_ZN7Konsole10MainWindow20applyKonsoleSettingsEv
libkonsoleapp.so.1:_ZN7Konsole10MainWindow20disconnectControllerEPNS_17SessionControllerE
libkonsoleapp.so.1:_ZN7Konsole10MainWindow20readGlobalPropertiesEP7KConfig
libkonsoleapp.so.1:_ZN7Konsole10MainWindow20saveGlobalPropertiesEP7KConfig
libkonsoleapp.so.1:_ZN7Konsole10MainWindow21updateUseTransparencyEv
libkonsoleapp.so.1:_ZN7Konsole10MainWindow22activeViewTitleChangedEPNS_14ViewPropertiesE
libkonsoleapp.so.1:_ZN7Konsole10MainWindow22configureNotificationsEv
libkonsoleapp.so.1:_ZN7Konsole10MainWindow22removeMenuAcceleratorsEv
libkonsoleapp.so.1:_ZN7Konsole10MainWindow23applyMainWindowSettingsERK12KConfigGroup
libkonsoleapp.so.1:_ZN7Konsole10MainWindow23restoreMenuAcceleratorsEv
libkonsoleapp.so.1:_ZN7Konsole10MainWindow24correctStandardShortcutsEv
libkonsoleapp.so.1:_ZN7Konsole10MainWindow24rememberMenuAcceleratorsEv
libkonsoleapp.so.1:_ZN7Konsole10MainWindow24showManageProfilesDialogEv
libkonsoleapp.so.1:_ZN7Konsole10MainWindow27setMenuBarInitialVisibilityEb
libkonsoleapp.so.1:_ZN7Konsole10MainWindow31setRemoveWindowTitleBarAndFrameEb
libkonsoleapp.so.1:_ZN7Konsole10MainWindow6newTabEv
libkonsoleapp.so.1:_ZN7Konsole10MainWindow7setBlurEb
libkonsoleapp.so.1:_ZN7Konsole10MainWindow8cloneTabEv
libkonsoleapp.so.1:_ZN7Konsole10MainWindow8openUrlsERK5QListI4QUrlE
libkonsoleapp.so.1:_ZN7Konsole10MainWindow8setFocusEv
libkonsoleapp.so.1:_ZN7Konsole10MainWindow9addPluginEPNS_14IKonsolePluginE
libkonsoleapp.so.1:_ZN7Konsole10MainWindow9newWindowEv
libkonsoleapp.so.1:_ZN7Konsole10MainWindow9showEventEP10QShowEvent
libkonsoleapp.so.1:_ZN7Konsole10MainWindowC1Ev
libkonsoleapp.so.1:_ZN7Konsole10MainWindowC2Ev
libkonsoleapp.so.1:_ZN7Konsole11Application11newInstanceEv
libkonsoleapp.so.1:_ZN7Konsole11Application11qt_metacallEN11QMetaObject4CallEiPPv
libkonsoleapp.so.1:_ZN7Konsole11Application11qt_metacastEPKc
libkonsoleapp.so.1:_ZN7Konsole11Application12createWindowERK28QExplicitlySharedDataPointerINS_7ProfileEERK7QString
libkonsoleapp.so.1:_ZN7Konsole11Application13newMainWindowEv
libkonsoleapp.so.1:_ZN7Konsole11Application15detachTerminalsEPNS_12ViewSplitterERK5QHashIPNS_15TerminalDisplayEPNS_7SessionEE
libkonsoleapp.so.1:_ZN7Konsole11Application15processHelpArgsEv
libkonsoleapp.so.1:_ZN7Konsole11Application16getCustomCommandER11QStringList
libkonsoleapp.so.1:_ZN7Konsole11Application17createTabFromArgsEPNS_10MainWindowERK5QHashI7QStringS4_E
libkonsoleapp.so.1:_ZN7Konsole11Application17processWindowArgsERb
libkonsoleapp.so.1:_ZN7Konsole11Application19startBackgroundModeEPNS_10MainWindowE
libkonsoleapp.so.1:_ZN7Konsole11Application21listAvailableProfilesEv
libkonsoleapp.so.1:_ZN7Konsole11Application21slotActivateRequestedE11QStringListRK7QString
libkonsoleapp.so.1:_ZN7Konsole11Application23listProfilePropertyInfoEv
libkonsoleapp.so.1:_ZN7Konsole11Application23processTabsFromFileArgsEPNS_10MainWindowE
libkonsoleapp.so.1:_ZN7Konsole11Application24processProfileChangeArgsE28QExplicitlySharedDataPointerINS_7ProfileEE
libkonsoleapp.so.1:_ZN7Konsole11Application24processProfileSelectArgsEv
libkonsoleapp.so.1:_ZN7Konsole11Application24toggleBackgroundInstanceEv
libkonsoleapp.so.1:_ZN7Konsole11Application25populateCommandLineParserEP18QCommandLineParser
libkonsoleapp.so.1:_ZN7Konsole11ApplicationC1E14QSharedPointerI18QCommandLineParserERK11QStringList
libkonsoleapp.so.1:_ZN7Konsole11ApplicationC2E14QSharedPointerI18QCommandLineParserERK11QStringList
libkonsoleapp.so.1:_ZN7Konsole11ApplicationD0Ev
libkonsoleapp.so.1:_ZN7Konsole11ApplicationD1Ev
libkonsoleapp.so.1:_ZN7Konsole11ApplicationD2Ev
libkonsoleapp.so.1:_ZN7Konsole11HTMLDecoder10decodeLineEPKNS_9CharacterEih
libkonsoleapp.so.1:_ZN7Konsole11HTMLDecoder3endEv
libkonsoleapp.so.1:_ZN7Konsole11HTMLDecoder5beginEP11QTextStream
libkonsoleapp.so.1:_ZN7Konsole11HTMLDecoder8openSpanER7QStringRKS1_
libkonsoleapp.so.1:_ZN7Konsole11HTMLDecoder9closeSpanER7QString
libkonsoleapp.so.1:_ZN7Konsole11HTMLDecoderC1ERK7QStringRK5QFont
libkonsoleapp.so.1:_ZN7Konsole11HTMLDecoderC2ERK7QStringRK5QFont
libkonsoleapp.so.1:_ZN7Konsole11ProfileList11qt_metacallEN11QMetaObject4CallEiPPv
libkonsoleapp.so.1:_ZN7Konsole11ProfileList11qt_metacastEPKc
libkonsoleapp.so.1:_ZN7Konsole11ProfileList12updateActionEP7QAction28QExplicitlySharedDataPointerINS_7ProfileEE
libkonsoleapp.so.1:_ZN7Konsole11ProfileList14actionsChangedERK5QListIP7QActionE
libkonsoleapp.so.1:_ZN7Konsole11ProfileList14profileChangedERK28QExplicitlySharedDataPointerINS_7ProfileEE
libkonsoleapp.so.1:_ZN7Konsole11ProfileList15profileSelectedERK28QExplicitlySharedDataPointerINS_7ProfileEE
libkonsoleapp.so.1:_ZN7Konsole11ProfileList15shortcutChangedERK28QExplicitlySharedDataPointerINS_7ProfileEERK12QKeySequence
libkonsoleapp.so.1:_ZN7Konsole11ProfileList17addShortcutActionERK28QExplicitlySharedDataPointerINS_7ProfileEE
libkonsoleapp.so.1:_ZN7Konsole11ProfileList17syncWidgetActionsEP7QWidgetb
libkonsoleapp.so.1:_ZN7Konsole11ProfileList17updateEmptyActionEv
libkonsoleapp.so.1:_ZN7Konsole11ProfileList20removeShortcutActionERK28QExplicitlySharedDataPointerINS_7ProfileEE
libkonsoleapp.so.1:_ZN7Konsole11ProfileList7actionsEv
libkonsoleapp.so.1:_ZN7Konsole11ProfileList9triggeredEP7QAction
libkonsoleapp.so.1:_ZN7Konsole11ProfileListC1EbP7QObject
libkonsoleapp.so.1:_ZN7Konsole11ProfileListC2EbP7QObject
libkonsoleapp.so.1:_ZN7Konsole12ProfileGroup10addProfileERK28QExplicitlySharedDataPointerINS_7ProfileEE
libkonsoleapp.so.1:_ZN7Konsole12ProfileGroup11setPropertyENS_7Profile8PropertyERK8QVariant
libkonsoleapp.so.1:_ZN7Konsole12ProfileGroup12updateValuesEv
libkonsoleapp.so.1:_ZN7Konsole12ProfileGroup13removeProfileERK28QExplicitlySharedDataPointerINS_7ProfileEE
libkonsoleapp.so.1:_ZN7Konsole12ProfileModel10setDefaultE28QExplicitlySharedDataPointerINS_7ProfileEE
libkonsoleapp.so.1:_ZN7Konsole12ProfileModel11qt_metacallEN11QMetaObject4CallEiPPv
libkonsoleapp.so.1:_ZN7Konsole12ProfileModel11qt_metacastEPKc
libkonsoleapp.so.1:_ZN7Konsole12ProfileModel3addE28QExplicitlySharedDataPointerINS_7ProfileEE
libkonsoleapp.so.1:_ZN7Konsole12ProfileModel6removeE28QExplicitlySharedDataPointerINS_7ProfileEE
libkonsoleapp.so.1:_ZN7Konsole12ProfileModel6updateE28QExplicitlySharedDataPointerINS_7ProfileEE
libkonsoleapp.so.1:_ZN7Konsole12ProfileModel7setDataERK11QModelIndexRK8QVarianti
libkonsoleapp.so.1:_ZN7Konsole12ProfileModel8instanceEv
libkonsoleapp.so.1:_ZN7Konsole12ProfileModel8populateEv
libkonsoleapp.so.1:_ZN7Konsole12ProfileModelC1Ev
libkonsoleapp.so.1:_ZN7Konsole12ProfileModelC2Ev
libkonsoleapp.so.1:_ZN7Konsole13PluginManager11qt_metacallEN11QMetaObject4CallEiPPv
libkonsoleapp.so.1:_ZN7Konsole13PluginManager11qt_metacastEPKc
libkonsoleapp.so.1:_ZN7Konsole13PluginManager14loadAllPluginsEv
libkonsoleapp.so.1:_ZN7Konsole13PluginManager18registerMainWindowEPNS_10MainWindowE
libkonsoleapp.so.1:_ZN7Konsole13PluginManagerC1Ev
libkonsoleapp.so.1:_ZN7Konsole13PluginManagerC2Ev
libkonsoleapp.so.1:_ZN7Konsole13PluginManagerD0Ev
libkonsoleapp.so.1:_ZN7Konsole13PluginManagerD1Ev
libkonsoleapp.so.1:_ZN7Konsole13PluginManagerD2Ev
libkonsoleapp.so.1:_ZN7Konsole13ProfileReader11readProfileERK7QString28QExplicitlySharedDataPointerINS_7ProfileEERS1_
libkonsoleapp.so.1:_ZN7Konsole13ProfileReader12findProfilesEv
libkonsoleapp.so.1:_ZN7Konsole13ProfileReader14readPropertiesERK7KConfig28QExplicitlySharedDataPointerINS_7ProfileEEPKNS5_12PropertyInfoE
libkonsoleapp.so.1:_ZN7Konsole13ProfileReaderC1Ev
libkonsoleapp.so.1:_ZN7Konsole13ProfileReaderC2Ev
libkonsoleapp.so.1:_ZN7Konsole13ProfileReaderD1Ev
libkonsoleapp.so.1:_ZN7Konsole13ProfileReaderD2Ev
libkonsoleapp.so.1:_ZN7Konsole13ProfileWriter12writeProfileERK7QStringRK28QExplicitlySharedDataPointerINS_7ProfileEE
libkonsoleapp.so.1:_ZN7Konsole13ProfileWriter15writePropertiesER7KConfigRK28QExplicitlySharedDataPointerINS_7ProfileEEPKNS4_12PropertyInfoE
libkonsoleapp.so.1:_ZN7Konsole13ProfileWriter7getPathERK28QExplicitlySharedDataPointerINS_7ProfileEE
libkonsoleapp.so.1:_ZN7Konsole13ProfileWriterC1Ev
libkonsoleapp.so.1:_ZN7Konsole13ProfileWriterC2Ev
libkonsoleapp.so.1:_ZN7Konsole13ProfileWriterD1Ev
libkonsoleapp.so.1:_ZN7Konsole13ProfileWriterD2Ev
libkonsoleapp.so.1:_ZN7Konsole14IKonsolePlugin11qt_metacallEN11QMetaObject4CallEiPPv
libkonsoleapp.so.1:_ZN7Konsole14IKonsolePlugin11qt_metacastEPKc
libkonsoleapp.so.1:_ZN7Konsole14IKonsolePlugin13addMainWindowEPNS_10MainWindowE
libkonsoleapp.so.1:_ZN7Konsole14IKonsolePlugin16removeMainWindowEPNS_10MainWindowE
libkonsoleapp.so.1:_ZN7Konsole14IKonsolePlugin7setNameERK7QString
libkonsoleapp.so.1:_ZN7Konsole14IKonsolePluginC1EP7QObjectRK5QListI8QVariantE
libkonsoleapp.so.1:_ZN7Konsole14IKonsolePluginC2EP7QObjectRK5QListI8QVariantE
libkonsoleapp.so.1:_ZN7Konsole14IKonsolePluginD0Ev
libkonsoleapp.so.1:_ZN7Konsole14IKonsolePluginD1Ev
libkonsoleapp.so.1:_ZN7Konsole14IKonsolePluginD2Ev
libkonsoleapp.so.1:_ZN7Konsole14ProfileManager10addProfileERK28QExplicitlySharedDataPointerINS_7ProfileEE
libkonsoleapp.so.1:_ZN7Konsole14ProfileManager11allProfilesEv
libkonsoleapp.so.1:_ZN7Konsole14ProfileManager11loadProfileERK7QString
libkonsoleapp.so.1:_ZN7Konsole14ProfileManager11qt_metacallEN11QMetaObject4CallEiPPv
libkonsoleapp.so.1:_ZN7Konsole14ProfileManager11qt_metacastEPKc
libkonsoleapp.so.1:_ZN7Konsole14ProfileManager11saveProfileERK28QExplicitlySharedDataPointerINS_7ProfileEE
libkonsoleapp.so.1:_ZN7Konsole14ProfileManager11setShortcutE28QExplicitlySharedDataPointerINS_7ProfileEERK12QKeySequence
libkonsoleapp.so.1:_ZN7Konsole14ProfileManager12profileAddedERK28QExplicitlySharedDataPointerINS_7ProfileEE
libkonsoleapp.so.1:_ZN7Konsole14ProfileManager12saveSettingsEv
libkonsoleapp.so.1:_ZN7Konsole14ProfileManager12sortProfilesEv
libkonsoleapp.so.1:_ZN7Konsole14ProfileManager13changeProfileE28QExplicitlySharedDataPointerINS_7ProfileEE5QHashINS2_8PropertyE8QVariantEb
libkonsoleapp.so.1:_ZN7Konsole14ProfileManager13deleteProfileE28QExplicitlySharedDataPointerINS_7ProfileEE
libkonsoleapp.so.1:_ZN7Konsole14ProfileManager13loadShortcutsEv
libkonsoleapp.so.1:_ZN7Konsole14ProfileManager13saveShortcutsEv
libkonsoleapp.so.1:_ZN7Konsole14ProfileManager14profileChangedERK28QExplicitlySharedDataPointerINS_7ProfileEE
libkonsoleapp.so.1:_ZN7Konsole14ProfileManager14profileRemovedERK28QExplicitlySharedDataPointerINS_7ProfileEE
libkonsoleapp.so.1:_ZN7Konsole14ProfileManager15loadAllProfilesERK7QString
libkonsoleapp.so.1:_ZN7Konsole14ProfileManager15shortcutChangedERK28QExplicitlySharedDataPointerINS_7ProfileEERK12QKeySequence
libkonsoleapp.so.1:_ZN7Konsole14ProfileManager17setDefaultProfileERK28QExplicitlySharedDataPointerINS_7ProfileEE
libkonsoleapp.so.1:_ZN7Konsole14ProfileManager18saveDefaultProfileEv
libkonsoleapp.so.1:_ZN7Konsole14ProfileManager19initFallbackProfileEv
libkonsoleapp.so.1:_ZN7Konsole14ProfileManager8instanceEv
libkonsoleapp.so.1:_ZN7Konsole14ProfileManagerC1Ev
libkonsoleapp.so.1:_ZN7Konsole14ProfileManagerC2Ev
libkonsoleapp.so.1:_ZN7Konsole14ProfileManagerD0Ev
libkonsoleapp.so.1:_ZN7Konsole14ProfileManagerD1Ev
libkonsoleapp.so.1:_ZN7Konsole14ProfileManagerD2Ev
libkonsoleapp.so.1:_ZN7Konsole14SessionManager11idToSessionEi
libkonsoleapp.so.1:_ZN7Konsole14SessionManager11qt_metacallEN11QMetaObject4CallEiPPv
libkonsoleapp.so.1:_ZN7Konsole14SessionManager11qt_metacastEPKc
libkonsoleapp.so.1:_ZN7Konsole14SessionManager12applyProfileEPNS_7SessionERK28QExplicitlySharedDataPointerINS_7ProfileEEb
libkonsoleapp.so.1:_ZN7Konsole14SessionManager12applyProfileERK28QExplicitlySharedDataPointerINS_7ProfileEEb
libkonsoleapp.so.1:_ZN7Konsole14SessionManager12getRestoreIdEPNS_7SessionE
libkonsoleapp.so.1:_ZN7Konsole14SessionManager12saveSessionsEP7KConfig
libkonsoleapp.so.1:_ZN7Konsole14SessionManager13createSessionE28QExplicitlySharedDataPointerINS_7ProfileEE
libkonsoleapp.so.1:_ZN7Konsole14SessionManager14profileChangedERK28QExplicitlySharedDataPointerINS_7ProfileEE
libkonsoleapp.so.1:_ZN7Konsole14SessionManager14sessionUpdatedEPNS_7SessionE
libkonsoleapp.so.1:_ZN7Konsole14SessionManager15restoreSessionsEP7KConfig
libkonsoleapp.so.1:_ZN7Konsole14SessionManager16closeAllSessionsEv
libkonsoleapp.so.1:_ZN7Konsole14SessionManager17sessionTerminatedEPNS_7SessionE
libkonsoleapp.so.1:_ZN7Konsole14SessionManager17setSessionProfileEPNS_7SessionE28QExplicitlySharedDataPointerINS_7ProfileEE
libkonsoleapp.so.1:_ZN7Konsole14SessionManager29sessionProfileCommandReceivedERK7QString
libkonsoleapp.so.1:_ZN7Konsole14SessionManager8instanceEv
libkonsoleapp.so.1:_ZN7Konsole14SessionManagerC1Ev
libkonsoleapp.so.1:_ZN7Konsole14SessionManagerC2Ev
libkonsoleapp.so.1:_ZN7Konsole14SessionManagerD0Ev
libkonsoleapp.so.1:_ZN7Konsole14SessionManagerD1Ev
libkonsoleapp.so.1:_ZN7Konsole14SessionManagerD2Ev
libkonsoleapp.so.1:_ZN7Konsole15KonsoleSettings4selfEv
libkonsoleapp.so.1:_ZN7Konsole15KonsoleSettingsC1Ev
libkonsoleapp.so.1:_ZN7Konsole15KonsoleSettingsC2Ev
libkonsoleapp.so.1:_ZN7Konsole15KonsoleSettingsD0Ev
libkonsoleapp.so.1:_ZN7Konsole15KonsoleSettingsD1Ev
libkonsoleapp.so.1:_ZN7Konsole15KonsoleSettingsD2Ev
libkonsoleapp.so.1:_ZN7Konsole16PlainTextDecoder10decodeLineEPKNS_9CharacterEih
libkonsoleapp.so.1:_ZN7Konsole16PlainTextDecoder20setLeadingWhitespaceEb
libkonsoleapp.so.1:_ZN7Konsole16PlainTextDecoder21setTrailingWhitespaceEb
libkonsoleapp.so.1:_ZN7Konsole16PlainTextDecoder22setRecordLinePositionsEb
libkonsoleapp.so.1:_ZN7Konsole16PlainTextDecoder3endEv
libkonsoleapp.so.1:_ZN7Konsole16PlainTextDecoder5beginEP11QTextStream
libkonsoleapp.so.1:_ZN7Konsole16PlainTextDecoderC1Ev
libkonsoleapp.so.1:_ZN7Konsole16PlainTextDecoderC2Ev
libkonsoleapp.so.1:_ZN7Konsole17SessionController10searchFromEv
libkonsoleapp.so.1:_ZN7Konsole17SessionController10selectLineEv
libkonsoleapp.so.1:_ZN7Konsole17SessionController10sendSignalEP7QAction
libkonsoleapp.so.1:_ZN7Konsole17SessionController11beginSearchERK7QStringNS_4Enum15SearchDirectionE
libkonsoleapp.so.1:_ZN7Konsole17SessionController11changeCodecEP10QTextCodec
libkonsoleapp.so.1:_ZN7Konsole17SessionController11openBrowserEv
libkonsoleapp.so.1:_ZN7Konsole17SessionController11qt_metacallEN11QMetaObject4CallEiPPv
libkonsoleapp.so.1:_ZN7Konsole17SessionController11qt_metacastEPKc
libkonsoleapp.so.1:_ZN7Konsole17SessionController11saveHistoryEv
libkonsoleapp.so.1:_ZN7Konsole17SessionController11trackOutputEP9QKeyEvent
libkonsoleapp.so.1:_ZN7Konsole17SessionController11viewFocusedEPS0_
libkonsoleapp.so.1:_ZN7Konsole17SessionController12clearHistoryEv
libkonsoleapp.so.1:_ZN7Konsole17SessionController12closeSessionEv
libkonsoleapp.so.1:_ZN7Konsole17SessionController12requestPrintEv
libkonsoleapp.so.1:_ZN7Konsole17SessionController12searchClosedEv
libkonsoleapp.so.1:_ZN7Konsole17SessionController12zmodemUploadEv
libkonsoleapp.so.1:_ZN7Konsole17SessionController13renameSessionEv
libkonsoleapp.so.1:_ZN7Konsole17SessionController13resetFontSizeEv
libkonsoleapp.so.1:_ZN7Konsole17SessionController13searchHistoryEb
libkonsoleapp.so.1:_ZN7Konsole17SessionController13switchProfileERK28QExplicitlySharedDataPointerINS_7ProfileEE
libkonsoleapp.so.1:_ZN7Konsole17SessionController14monitorSilenceEb
libkonsoleapp.so.1:_ZN7Konsole17SessionController14searchBarEventEv
libkonsoleapp.so.1:_ZN7Konsole17SessionController14setupSearchBarEv
libkonsoleapp.so.1:_ZN7Konsole17SessionController14toggleReadOnlyEv
libkonsoleapp.so.1:_ZN7Konsole17SessionController14zmodemDownloadEv
libkonsoleapp.so.1:_ZN7Konsole17SessionController15copyInputToNoneEv
libkonsoleapp.so.1:_ZN7Konsole17SessionController15enableSearchBarEb
libkonsoleapp.so.1:_ZN7Konsole17SessionController15monitorActivityEb
libkonsoleapp.so.1:_ZN7Konsole17SessionController15rawTitleChangedEv
libkonsoleapp.so.1:_ZN7Konsole17SessionController15searchCompletedEb
libkonsoleapp.so.1:_ZN7Konsole17SessionController16decreaseFontSizeEv
libkonsoleapp.so.1:_ZN7Konsole17SessionController16highlightMatchesEb
libkonsoleapp.so.1:_ZN7Konsole17SessionController16increaseFontSizeEv
libkonsoleapp.so.1:_ZN7Konsole17SessionController16selectionChangedERK7QString
libkonsoleapp.so.1:_ZN7Konsole17SessionController16setSearchStartToEi
libkonsoleapp.so.1:_ZN7Konsole17SessionController16updateCopyActionERK7QString
libkonsoleapp.so.1:_ZN7Konsole17SessionController16updateFilterListERK28QExplicitlySharedDataPointerINS_7ProfileEE
libkonsoleapp.so.1:_ZN7Konsole17SessionController17changeSearchMatchEv
libkonsoleapp.so.1:_ZN7Konsole17SessionController17findNextInHistoryEv
libkonsoleapp.so.1:_ZN7Konsole17SessionController17searchTextChangedERK7QString
libkonsoleapp.so.1:_ZN7Konsole17SessionController17setShowMenuActionEP7QAction
libkonsoleapp.so.1:_ZN7Konsole17SessionController17setupExtraActionsEv
libkonsoleapp.so.1:_ZN7Konsole17SessionController17updateCodecActionEP10QTextCodec
libkonsoleapp.so.1:_ZN7Konsole17SessionController17updateSessionIconEv
libkonsoleapp.so.1:_ZN7Konsole17SessionController18copyInputToAllTabsEv
libkonsoleapp.so.1:_ZN7Konsole17SessionController18editCurrentProfileEv
libkonsoleapp.so.1:_ZN7Konsole17SessionController18interactionHandlerEv
libkonsoleapp.so.1:_ZN7Konsole17SessionController18removeSearchFilterEv
libkonsoleapp.so.1:_ZN7Konsole17SessionController18setupCommonActionsEv
libkonsoleapp.so.1:_ZN7Konsole17SessionController18showHistoryOptionsEv
libkonsoleapp.so.1:_ZN7Konsole17SessionController18updateSearchFilterEv
libkonsoleapp.so.1:_ZN7Konsole17SessionController18viewDragAndDroppedEv
libkonsoleapp.so.1:_ZN7Konsole17SessionController19sendBackgroundColorEj
libkonsoleapp.so.1:_ZN7Konsole17SessionController19sendForegroundColorEj
libkonsoleapp.so.1:_ZN7Konsole17SessionController19updateWebSearchMenuEv
libkonsoleapp.so.1:_ZN7Konsole17SessionController20clearHistoryAndResetEv
libkonsoleapp.so.1:_ZN7Konsole17SessionController20monitorProcessFinishEb
libkonsoleapp.so.1:_ZN7Konsole17SessionController20sessionResizeRequestERK5QSize
libkonsoleapp.so.1:_ZN7Konsole17SessionController21configureWebShortcutsEv
libkonsoleapp.so.1:_ZN7Konsole17SessionController21findPreviousInHistoryEv
libkonsoleapp.so.1:_ZN7Konsole17SessionController21pasteFromX11SelectionEv
libkonsoleapp.so.1:_ZN7Konsole17SessionController22sessionReadOnlyChangedEv
libkonsoleapp.so.1:_ZN7Konsole17SessionController22setFindNextPrevEnabledEb
libkonsoleapp.so.1:_ZN7Konsole17SessionController22showDisplayContextMenuERK6QPoint
libkonsoleapp.so.1:_ZN7Konsole17SessionController22viewFocusChangeHandlerEb
libkonsoleapp.so.1:_ZN7Konsole17SessionController23copyInputToSelectedTabsEv
libkonsoleapp.so.1:_ZN7Konsole17SessionController23currentDirectoryChangedERK7QString
libkonsoleapp.so.1:_ZN7Konsole17SessionController23handleWebShortcutActionEv
libkonsoleapp.so.1:_ZN7Konsole17SessionController23sessionAttributeChangedEv
libkonsoleapp.so.1:_ZN7Konsole17SessionController24prepareSwitchProfileMenuEv
libkonsoleapp.so.1:_ZN7Konsole17SessionController24scrollBackOptionsChangedEii
libkonsoleapp.so.1:_ZN7Konsole17SessionController24setEditProfileActionTextERK28QExplicitlySharedDataPointerINS_7ProfileEE
libkonsoleapp.so.1:_ZN7Konsole17SessionController24toggleAllowMouseTrackingEv
libkonsoleapp.so.1:_ZN7Konsole17SessionController25copyInputActionsTriggeredEP7QAction
libkonsoleapp.so.1:_ZN7Konsole17SessionController26updateReadOnlyActionStatesEv
libkonsoleapp.so.1:_ZN7Konsole17SessionController27sessionNotificationsChangedENS_7Session12NotificationEb
libkonsoleapp.so.1:_ZN7Konsole17SessionController28listenForScreenWindowUpdatesEv
libkonsoleapp.so.1:_ZN7Konsole17SessionController32movementKeyFromSearchBarReceivedEP9QKeyEvent
libkonsoleapp.so.1:_ZN7Konsole17SessionController33setSearchStartToWindowCurrentLineEv
libkonsoleapp.so.1:_ZN7Konsole17SessionController33setupPrimaryScreenSpecificActionsEb
libkonsoleapp.so.1:_ZN7Konsole17SessionController46updateMenuIconsAccordingToReverseSearchSettingEv
libkonsoleapp.so.1:_ZN7Konsole17SessionController4copyEv
libkonsoleapp.so.1:_ZN7Konsole17SessionController5pasteEv
libkonsoleapp.so.1:_ZN7Konsole17SessionController6renameEv
libkonsoleapp.so.1:_ZN7Konsole17SessionController7openUrlERK4QUrl
libkonsoleapp.so.1:_ZN7Konsole17SessionController8snapshotEv
libkonsoleapp.so.1:_ZN7Konsole17SessionController9selectAllEv
libkonsoleapp.so.1:_ZN7Konsole17SessionControllerC1EPNS_7SessionEPNS_15TerminalDisplayEP7QObject
libkonsoleapp.so.1:_ZN7Konsole17SessionControllerC2EPNS_7SessionEPNS_15TerminalDisplayEP7QObject
libkonsoleapp.so.1:_ZN7Konsole17SessionControllerD0Ev
libkonsoleapp.so.1:_ZN7Konsole17SessionControllerD1Ev
libkonsoleapp.so.1:_ZN7Konsole17SessionControllerD2Ev
libkonsoleapp.so.1:_ZN7Konsole20ProfileCommandParser5parseERK7QString
libkonsoleapp.so.1:_ZN7Konsole24SessionDisplayConnection11qt_metacallEN11QMetaObject4CallEiPPv
libkonsoleapp.so.1:_ZN7Konsole24SessionDisplayConnection11qt_metacastEPKc
libkonsoleapp.so.1:_ZN7Konsole24SessionDisplayConnection4viewEv
libkonsoleapp.so.1:_ZN7Konsole24SessionDisplayConnection7sessionEv
libkonsoleapp.so.1:_ZN7Konsole24SessionDisplayConnectionC1EPNS_7SessionEPNS_15TerminalDisplayEP7QObject
libkonsoleapp.so.1:_ZN7Konsole24SessionDisplayConnectionC2EPNS_7SessionEPNS_15TerminalDisplayEP7QObject
libkonsoleapp.so.1:_ZN7Konsole7Profile11setPropertyENS0_8PropertyERK8QVariant
libkonsoleapp.so.1:_ZN7Konsole7Profile11useFallbackEv
libkonsoleapp.so.1:_ZN7Konsole7Profile12lookupByNameERK7QString
libkonsoleapp.so.1:_ZN7Konsole7Profile16registerPropertyERKNS0_12PropertyInfoE
libkonsoleapp.so.1:_ZN7Konsole7Profile25fillTableWithDefaultNamesEv
libkonsoleapp.so.1:_ZN7Konsole7Profile5cloneE28QExplicitlySharedDataPointerIS0_Eb
libkonsoleapp.so.1:_ZN7Konsole7Profile7asGroupEv
libkonsoleapp.so.1:_ZN7Konsole7Profile9setHiddenEb
libkonsoleapp.so.1:_ZN7Konsole7Profile9setParentERK28QExplicitlySharedDataPointerIS0_E
libkonsoleapp.so.1:_ZN7Konsole7ProfileC1ERK28QExplicitlySharedDataPointerIS0_E
libkonsoleapp.so.1:_ZN7Konsole7ProfileC2ERK28QExplicitlySharedDataPointerIS0_E
libkonsoleapp.so.1:_ZN7Konsole7ProfileD0Ev
libkonsoleapp.so.1:_ZN7Konsole7ProfileD1Ev
libkonsoleapp.so.1:_ZN7Konsole7ProfileD2Ev
libkonsoleapp.so.1:_ZN7Konsole7Session10removeViewEPNS_15TerminalDisplayE
libkonsoleapp.so.1:_ZN7Konsole7Session10sendSignalEi
libkonsoleapp.so.1:_ZN7Konsole7Session10setProfileERK7QString
libkonsoleapp.so.1:_ZN7Konsole7Session10setProgramERK7QString
libkonsoleapp.so.1:_ZN7Konsole7Session11bellRequestERK7QString
libkonsoleapp.so.1:_ZN7Konsole7Session11qt_metacallEN11QMetaObject4CallEiPPv
libkonsoleapp.so.1:_ZN7Konsole7Session11qt_metacastEPKc
libkonsoleapp.so.1:_ZN7Konsole7Session11reportColorENS0_17SessionAttributesERK6QColorj
libkonsoleapp.so.1:_ZN7Konsole7Session11saveSessionER12KConfigGroup
libkonsoleapp.so.1:_ZN7Konsole7Session11setIconNameERK7QString
libkonsoleapp.so.1:_ZN7Konsole7Session11setIconTextERK7QString
libkonsoleapp.so.1:_ZN7Konsole7Session11setReadOnlyEb
libkonsoleapp.so.1:_ZN7Konsole7Session11startZModemERK7QStringS3_RK11QStringList
libkonsoleapp.so.1:_ZN7Konsole7Session12cancelZModemEv
libkonsoleapp.so.1:_ZN7Konsole7Session12checkProgramERK7QString
libkonsoleapp.so.1:_ZN7Konsole7Session12clearHistoryEv
libkonsoleapp.so.1:_ZN7Konsole7Session12openTeletypeEib
libkonsoleapp.so.1:_ZN7Konsole7Session12setAddToUtmpEb
libkonsoleapp.so.1:_ZN7Konsole7Session12setArgumentsERK11QStringList
libkonsoleapp.so.1:_ZN7Konsole7Session12setAutoCloseEb
libkonsoleapp.so.1:_ZN7Konsole7Session13resizeRequestERK5QSize
libkonsoleapp.so.1:_ZN7Konsole7Session13viewDestroyedEP7QObject
libkonsoleapp.so.1:_ZN7Konsole7Session14getProcessInfoEv
libkonsoleapp.so.1:_ZN7Konsole7Session14handleActivityEv
libkonsoleapp.so.1:_ZN7Konsole7Session14onReceiveBlockEPKci
libkonsoleapp.so.1:_ZN7Konsole7Session14restoreSessionER12KConfigGroup
libkonsoleapp.so.1:_ZN7Konsole7Session14sendMouseEventEiiii
libkonsoleapp.so.1:_ZN7Konsole7Session14setEnvironmentERK11QStringList
libkonsoleapp.so.1:_ZN7Konsole7Session14setHistorySizeEi
libkonsoleapp.so.1:_ZN7Konsole7Session14setHistoryTypeERKNS_11HistoryTypeE
libkonsoleapp.so.1:_ZN7Konsole7Session14setKeyBindingsERK7QString
libkonsoleapp.so.1:_ZN7Konsole7Session14zmodemFinishedEv
libkonsoleapp.so.1:_ZN7Konsole7Session15closeInForceWayEv
libkonsoleapp.so.1:_ZN7Konsole7Session15getDynamicTitleEv
libkonsoleapp.so.1:_ZN7Konsole7Session15isPrimaryScreenEv
libkonsoleapp.so.1:_ZN7Konsole7Session15readOnlyChangedEv
libkonsoleapp.so.1:_ZN7Konsole7Session15terminalWarningERK7QString
libkonsoleapp.so.1:_ZN7Konsole7Session16closeInNormalWayEv
libkonsoleapp.so.1:_ZN7Konsole7Session16onViewSizeChangeEii
libkonsoleapp.so.1:_ZN7Konsole7Session16selectionChangedERK7QString
libkonsoleapp.so.1:_ZN7Konsole7Session16setPreferredSizeERK5QSize
libkonsoleapp.so.1:_ZN7Konsole7Session16silenceTimerDoneEv
libkonsoleapp.so.1:_ZN7Konsole7Session16updateWindowSizeEii
libkonsoleapp.so.1:_ZN7Konsole7Session16zmodemReadStatusEv
libkonsoleapp.so.1:_ZN7Konsole7Session17activityTimerDoneEv
libkonsoleapp.so.1:_ZN7Konsole7Session17setDarkBackgroundEb
libkonsoleapp.so.1:_ZN7Konsole7Session17setMonitorSilenceEb
libkonsoleapp.so.1:_ZN7Konsole7Session17setTabTitleFormatENS0_15TabTitleContextERK7QString
libkonsoleapp.so.1:_ZN7Konsole7Session17setTabTitleFormatEiRK7QString
libkonsoleapp.so.1:_ZN7Konsole7Session17tabColorSetByUserEb
libkonsoleapp.so.1:_ZN7Konsole7Session17tabTitleSetByUserEb
libkonsoleapp.so.1:_ZN7Konsole7Session18getBackgroundColorEj
libkonsoleapp.so.1:_ZN7Konsole7Session18getForegroundColorEj
libkonsoleapp.so.1:_ZN7Konsole7Session18primaryScreenInUseEb
libkonsoleapp.so.1:_ZN7Konsole7Session18resetNotificationsEv
libkonsoleapp.so.1:_ZN7Konsole7Session18setMonitorActivityEb
libkonsoleapp.so.1:_ZN7Konsole7Session18updateTerminalSizeEv
libkonsoleapp.so.1:_ZN7Konsole7Session18zmodemReceiveBlockEPKci
libkonsoleapp.so.1:_ZN7Konsole7Session19addEnvironmentEntryERK7QString
libkonsoleapp.so.1:_ZN7Konsole7Session19foregroundProcessIdEv
libkonsoleapp.so.1:_ZN7Konsole7Session19sessionCodecChangedEP10QTextCodec
libkonsoleapp.so.1:_ZN7Konsole7Session19setSessionAttributeEiRK7QString
libkonsoleapp.so.1:_ZN7Konsole7Session20notificationsChangedENS0_12NotificationEb
libkonsoleapp.so.1:_ZN7Konsole7Session20onPrimaryScreenInUseEb
libkonsoleapp.so.1:_ZN7Konsole7Session20zmodemUploadDetectedEv
libkonsoleapp.so.1:_ZN7Konsole7Session21foregroundProcessNameEv
libkonsoleapp.so.1:_ZN7Konsole7Session21reportBackgroundColorERK6QColorj
libkonsoleapp.so.1:_ZN7Konsole7Session21reportForegroundColorERK6QColorj
libkonsoleapp.so.1:_ZN7Konsole7Session21setFlowControlEnabledEb
libkonsoleapp.so.1:_ZN7Konsole7Session22setPendingNotificationENS0_12NotificationEb
libkonsoleapp.so.1:_ZN7Konsole7Session22updateFlowControlStateEb
libkonsoleapp.so.1:_ZN7Konsole7Session22updateWorkingDirectoryEv
libkonsoleapp.so.1:_ZN7Konsole7Session22zmodemDownloadDetectedEv
libkonsoleapp.so.1:_ZN7Konsole7Session22zmodemReadAndSendBlockEv
libkonsoleapp.so.1:_ZN7Konsole7Session23currentDirectoryChangedERK7QString
libkonsoleapp.so.1:_ZN7Konsole7Session23currentWorkingDirectoryEv
libkonsoleapp.so.1:_ZN7Konsole7Session23sessionAttributeChangedEv
libkonsoleapp.so.1:_ZN7Konsole7Session23sessionAttributeRequestEij
libkonsoleapp.so.1:_ZN7Konsole7Session24fireZModemUploadDetectedEv
libkonsoleapp.so.1:_ZN7Konsole7Session24setMonitorSilenceSecondsEi
libkonsoleapp.so.1:_ZN7Konsole7Session24updateSessionProcessInfoEv
libkonsoleapp.so.1:_ZN7Konsole7Session25flowControlEnabledChangedEb
libkonsoleapp.so.1:_ZN7Konsole7Session25isForegroundProcessActiveEv
libkonsoleapp.so.1:_ZN7Konsole7Session26fireZModemDownloadDetectedEv
libkonsoleapp.so.1:_ZN7Konsole7Session26setInitialWorkingDirectoryERK7QString
libkonsoleapp.so.1:_ZN7Konsole7Session27updateForegroundProcessInfoEv
libkonsoleapp.so.1:_ZN7Konsole7Session28changeBackgroundColorRequestERK6QColor
libkonsoleapp.so.1:_ZN7Konsole7Session28changeForegroundColorRequestERK6QColor
libkonsoleapp.so.1:_ZN7Konsole7Session28profileChangeCommandReceivedERK7QString
libkonsoleapp.so.1:_ZN7Konsole7Session3runEv
libkonsoleapp.so.1:_ZN7Konsole7Session4doneEiN8QProcess10ExitStatusE
libkonsoleapp.so.1:_ZN7Konsole7Session4killEi
libkonsoleapp.so.1:_ZN7Konsole7Session4sizeEv
libkonsoleapp.so.1:_ZN7Konsole7Session5closeEv
libkonsoleapp.so.1:_ZN7Konsole7Session5codecEv
libkonsoleapp.so.1:_ZN7Konsole7Session6getUrlEv
libkonsoleapp.so.1:_ZN7Konsole7Session7addViewEPNS_15TerminalDisplayE
libkonsoleapp.so.1:_ZN7Konsole7Session7profileEv
libkonsoleapp.so.1:_ZN7Konsole7Session7refreshEv
libkonsoleapp.so.1:_ZN7Konsole7Session7setSizeERK5QSize
libkonsoleapp.so.1:_ZN7Konsole7Session7startedEv
libkonsoleapp.so.1:_ZN7Konsole7Session8finishedEv
libkonsoleapp.so.1:_ZN7Konsole7Session8isRemoteEv
libkonsoleapp.so.1:_ZN7Konsole7Session8setCodecEP10QTextCodec
libkonsoleapp.so.1:_ZN7Konsole7Session8setCodecERK10QByteArray
libkonsoleapp.so.1:_ZN7Konsole7Session8setColorERK6QColor
libkonsoleapp.so.1:_ZN7Konsole7Session8setTitleENS0_9TitleRoleERK7QString
libkonsoleapp.so.1:_ZN7Konsole7Session8setTitleEiRK7QString
libkonsoleapp.so.1:_ZN7Konsole7SessionC1EP7QObject
libkonsoleapp.so.1:_ZN7Konsole7SessionC2EP7QObject
libkonsoleapp.so.1:_ZN7Konsole7SessionD0Ev
libkonsoleapp.so.1:_ZN7Konsole7SessionD1Ev
libkonsoleapp.so.1:_ZN7Konsole7SessionD2Ev
libkonsoleapp.so.1:_ZN9__gnu_cxx15__concat_size_tEPcmm
libkonsoleapp.so.1:_ZN9__gnu_cxx15__snprintf_liteEPcmPKcP13__va_list_tag
libkonsoleapp.so.1:_ZN9__gnu_cxx20recursive_init_errorC1Ev
libkonsoleapp.so.1:_ZN9__gnu_cxx20recursive_init_errorC2Ev
libkonsoleapp.so.1:_ZN9__gnu_cxx20recursive_init_errorD0Ev
libkonsoleapp.so.1:_ZN9__gnu_cxx20recursive_init_errorD1Ev
libkonsoleapp.so.1:_ZN9__gnu_cxx20recursive_init_errorD2Ev
libkonsoleapp.so.1:_ZN9__gnu_cxx26__throw_insufficient_spaceEPKcS1_
libkonsoleapp.so.1:_ZN9__gnu_cxx27__verbose_terminate_handlerEv
libkonsoleapp.so.1:_ZN9__gnu_cxx9__freeresEv
libkonsoleapp.so.1:_ZNK10__cxxabiv117__class_type_info10__do_catchEPKSt9type_infoPPvj
libkonsoleapp.so.1:_ZNK10__cxxabiv117__class_type_info11__do_upcastEPKS0_PKvRNS0_15__upcast_resultE
libkonsoleapp.so.1:_ZNK10__cxxabiv117__class_type_info11__do_upcastEPKS0_PPv
libkonsoleapp.so.1:_ZNK10__cxxabiv117__class_type_info12__do_dyncastElNS0_10__sub_kindEPKS0_PKvS3_S5_RNS0_16__dyncast_resultE
libkonsoleapp.so.1:_ZNK10__cxxabiv117__class_type_info20__do_find_public_srcElPKvPKS0_S2_
libkonsoleapp.so.1:_ZNK10__cxxabiv120__si_class_type_info11__do_upcastEPKNS_17__class_type_infoEPKvRNS1_15__upcast_resultE
libkonsoleapp.so.1:_ZNK10__cxxabiv120__si_class_type_info12__do_dyncastElNS_17__class_type_info10__sub_kindEPKS1_PKvS4_S6_RNS1_16__dyncast_resultE
libkonsoleapp.so.1:_ZNK10__cxxabiv120__si_class_type_info20__do_find_public_srcElPKvPKNS_17__class_type_infoES2_
libkonsoleapp.so.1:_ZNK10__cxxabiv121__vmi_class_type_info11__do_upcastEPKNS_17__class_type_infoEPKvRNS1_15__upcast_resultE
libkonsoleapp.so.1:_ZNK10__cxxabiv121__vmi_class_type_info12__do_dyncastElNS_17__class_type_info10__sub_kindEPKS1_PKvS4_S6_RNS1_16__dyncast_resultE
libkonsoleapp.so.1:_ZNK10__cxxabiv121__vmi_class_type_info20__do_find_public_srcElPKvPKNS_17__class_type_infoES2_
libkonsoleapp.so.1:_ZNK7Konsole10MainWindow10metaObjectEv
libkonsoleapp.so.1:_ZNK7Konsole10MainWindow11viewManagerEv
libkonsoleapp.so.1:_ZNK7Konsole10MainWindow13triggerActionERK7QString
libkonsoleapp.so.1:_ZNK7Konsole10MainWindow15bookmarkHandlerEv
libkonsoleapp.so.1:_ZNK7Konsole10MainWindow16activeSessionDirEv
libkonsoleapp.so.1:_ZNK7Konsole10MainWindow22wasWindowGeometrySavedEv
libkonsoleapp.so.1:_ZNK7Konsole11Application10metaObjectEv
libkonsoleapp.so.1:_ZNK7Konsole11ProfileList10metaObjectEv
libkonsoleapp.so.1:_ZNK7Konsole11ProfileList16actionForProfileERK28QExplicitlySharedDataPointerINS_7ProfileEE
libkonsoleapp.so.1:_ZNK7Konsole12ProfileGroup8profilesEv
libkonsoleapp.so.1:_ZNK7Konsole12ProfileModel10headerDataEiN2Qt11OrientationEi
libkonsoleapp.so.1:_ZNK7Konsole12ProfileModel10metaObjectEv
libkonsoleapp.so.1:_ZNK7Konsole12ProfileModel11columnCountERK11QModelIndex
libkonsoleapp.so.1:_ZNK7Konsole12ProfileModel4dataERK11QModelIndexi
libkonsoleapp.so.1:_ZNK7Konsole12ProfileModel5flagsERK11QModelIndex
libkonsoleapp.so.1:_ZNK7Konsole12ProfileModel8rowCountERK11QModelIndex
libkonsoleapp.so.1:_ZNK7Konsole13PluginManager10metaObjectEv
libkonsoleapp.so.1:_ZNK7Konsole13PluginManager7pluginsEv
libkonsoleapp.so.1:_ZNK7Konsole14IKonsolePlugin10metaObjectEv
libkonsoleapp.so.1:_ZNK7Konsole14IKonsolePlugin4nameEv
libkonsoleapp.so.1:_ZNK7Konsole14ProfileManager10metaObjectEv
libkonsoleapp.so.1:_ZNK7Konsole14ProfileManager11findProfileERK28QExplicitlySharedDataPointerINS_7ProfileEE
libkonsoleapp.so.1:_ZNK7Konsole14ProfileManager14defaultProfileEv
libkonsoleapp.so.1:_ZNK7Konsole14ProfileManager14loadedProfilesEv
libkonsoleapp.so.1:_ZNK7Konsole14ProfileManager15fallbackProfileEv
libkonsoleapp.so.1:_ZNK7Konsole14ProfileManager18generateUniqueNameEv
libkonsoleapp.so.1:_ZNK7Konsole14ProfileManager21availableProfileNamesEv
libkonsoleapp.so.1:_ZNK7Konsole14ProfileManager21availableProfilePathsEv
libkonsoleapp.so.1:_ZNK7Konsole14ProfileManager8shortcutE28QExplicitlySharedDataPointerINS_7ProfileEE
libkonsoleapp.so.1:_ZNK7Konsole14SessionManager10metaObjectEv
libkonsoleapp.so.1:_ZNK7Konsole14SessionManager14sessionProfileEPNS_7SessionE
libkonsoleapp.so.1:_ZNK7Konsole14SessionManager20isClosingAllSessionsEv
libkonsoleapp.so.1:_ZNK7Konsole14SessionManager8sessionsEv
libkonsoleapp.so.1:_ZNK7Konsole16PlainTextDecoder13linePositionsEv
libkonsoleapp.so.1:_ZNK7Konsole17SessionController10currentDirEv
libkonsoleapp.so.1:_ZNK7Konsole17SessionController10isReadOnlyEv
libkonsoleapp.so.1:_ZNK7Konsole17SessionController10metaObjectEv
libkonsoleapp.so.1:_ZNK7Konsole17SessionController12confirmCloseEv
libkonsoleapp.so.1:_ZNK7Konsole17SessionController13isKonsolePartEv
libkonsoleapp.so.1:_ZNK7Konsole17SessionController16tabColoredByUserEb
libkonsoleapp.so.1:_ZNK7Konsole17SessionController16tabRenamedByUserEb
libkonsoleapp.so.1:_ZNK7Konsole17SessionController17confirmForceCloseEv
libkonsoleapp.so.1:_ZNK7Konsole17SessionController17isCopyInputActiveEv
libkonsoleapp.so.1:_ZNK7Konsole17SessionController20reverseSearchCheckedEv
libkonsoleapp.so.1:_ZNK7Konsole17SessionController26regexpFromSearchBarOptionsEv
libkonsoleapp.so.1:_ZNK7Konsole17SessionController3urlEv
libkonsoleapp.so.1:_ZNK7Konsole17SessionController7isValidEv
libkonsoleapp.so.1:_ZNK7Konsole17SessionController9userTitleEv
libkonsoleapp.so.1:_ZNK7Konsole24SessionDisplayConnection10metaObjectEv
libkonsoleapp.so.1:_ZNK7Konsole24SessionDisplayConnection7isValidEv
libkonsoleapp.so.1:_ZNK7Konsole7Profile10isFallbackEv
libkonsoleapp.so.1:_ZNK7Konsole7Profile13isPropertySetENS0_8PropertyE
libkonsoleapp.so.1:_ZNK7Konsole7Profile13setPropertiesEv
libkonsoleapp.so.1:_ZNK7Konsole7Profile13textEditorCmdEv
libkonsoleapp.so.1:_ZNK7Konsole7Profile18propertiesInfoListEv
libkonsoleapp.so.1:_ZNK7Konsole7Profile6parentEv
libkonsoleapp.so.1:_ZNK7Konsole7Profile7asGroupEv
libkonsoleapp.so.1:_ZNK7Konsole7Profile7isEmptyEv
libkonsoleapp.so.1:_ZNK7Konsole7Profile8isHiddenEv
libkonsoleapp.so.1:_ZNK7Konsole7Session10isReadOnlyEv
libkonsoleapp.so.1:_ZNK7Konsole7Session10metaObjectEv
libkonsoleapp.so.1:_ZNK7Konsole7Session10runCommandERK7QString
libkonsoleapp.so.1:_ZNK7Konsole7Session11environmentEv
libkonsoleapp.so.1:_ZNK7Konsole7Session11historySizeEv
libkonsoleapp.so.1:_ZNK7Konsole7Session11historyTypeEv
libkonsoleapp.so.1:_ZNK7Konsole7Session11keyBindingsEv
libkonsoleapp.so.1:_ZNK7Konsole7Session13preferredSizeEv
libkonsoleapp.so.1:_ZNK7Konsole7Session14shellSessionIdEv
libkonsoleapp.so.1:_ZNK7Konsole7Session14tabTitleFormatENS0_15TabTitleContextE
libkonsoleapp.so.1:_ZNK7Konsole7Session14tabTitleFormatEi
libkonsoleapp.so.1:_ZNK7Konsole7Session14validDirectoryERK7QString
libkonsoleapp.so.1:_ZNK7Konsole7Session16isMonitorSilenceEv
libkonsoleapp.so.1:_ZNK7Konsole7Session17isMonitorActivityEv
libkonsoleapp.so.1:_ZNK7Konsole7Session18flowControlEnabledEv
libkonsoleapp.so.1:_ZNK7Konsole7Session18sendTextToTerminalERK7QStringRK5QChar
libkonsoleapp.so.1:_ZNK7Konsole7Session19isTabColorSetByUserEv
libkonsoleapp.so.1:_ZNK7Konsole7Session19isTabTitleSetByUserEv
libkonsoleapp.so.1:_ZNK7Konsole7Session5colorEv
libkonsoleapp.so.1:_ZNK7Konsole7Session5titleENS0_9TitleRoleE
libkonsoleapp.so.1:_ZNK7Konsole7Session5titleEi
libkonsoleapp.so.1:_ZNK7Konsole7Session5viewsEv
libkonsoleapp.so.1:_ZNK7Konsole7Session7programEv
libkonsoleapp.so.1:_ZNK7Konsole7Session8hasFocusEv
libkonsoleapp.so.1:_ZNK7Konsole7Session8iconNameEv
libkonsoleapp.so.1:_ZNK7Konsole7Session8iconTextEv
libkonsoleapp.so.1:_ZNK7Konsole7Session8sendTextERK7QString
libkonsoleapp.so.1:_ZNK7Konsole7Session8windowIdEv
libkonsoleapp.so.1:_ZNK7Konsole7Session9argumentsEv
libkonsoleapp.so.1:_ZNK7Konsole7Session9autoCloseEv
libkonsoleapp.so.1:_ZNK7Konsole7Session9emulationEv
libkonsoleapp.so.1:_ZNK7Konsole7Session9isRunningEv
libkonsoleapp.so.1:_ZNK7Konsole7Session9processIdEv
libkonsoleapp.so.1:_ZNK7Konsole7Session9sessionIdEv
libkonsoleapp.so.1:_ZNK7Konsole7Session9userTitleEv
libkonsoleapp.so.1:_ZNKSt10bad_typeid4whatEv
libkonsoleapp.so.1:_ZNKSt10error_code23default_error_conditionEv
libkonsoleapp.so.1:_ZNKSt11logic_error4whatEv
libkonsoleapp.so.1:_ZNKSt12future_error4whatEv
libkonsoleapp.so.1:_ZNKSt13bad_exception4whatEv
libkonsoleapp.so.1:_ZNKSt13random_device13_M_getentropyEv
libkonsoleapp.so.1:_ZNKSt13runtime_error4whatEv
libkonsoleapp.so.1:_ZNKSt15__exception_ptr13exception_ptr20__cxa_exception_typeEv
libkonsoleapp.so.1:_ZNKSt15__exception_ptr13exception_ptr6_M_getEv
libkonsoleapp.so.1:_ZNKSt15__exception_ptr13exception_ptrcvMS0_FvvEEv
libkonsoleapp.so.1:_ZNKSt15__exception_ptr13exception_ptrntEv
libkonsoleapp.so.1:_ZNKSt17bad_function_call4whatEv
libkonsoleapp.so.1:_ZNKSt20bad_array_new_length4whatEv
libkonsoleapp.so.1:_ZNKSt3_V214error_category10_M_messageB5cxx11Ei
libkonsoleapp.so.1:_ZNKSt3_V214error_category10_M_messageEi
libkonsoleapp.so.1:_ZNKSt3_V214error_category10equivalentERKSt10error_codei
libkonsoleapp.so.1:_ZNKSt3_V214error_category10equivalentEiRKSt15error_condition
libkonsoleapp.so.1:_ZNKSt3_V214error_category23default_error_conditionEi
libkonsoleapp.so.1:_ZNKSt8bad_cast4whatEv
libkonsoleapp.so.1:_ZNKSt9bad_alloc4whatEv
libkonsoleapp.so.1:_ZNKSt9exception4whatEv
libkonsoleapp.so.1:_ZNKSt9type_info10__do_catchEPKS_PPvj
libkonsoleapp.so.1:_ZNKSt9type_info11__do_upcastEPKN10__cxxabiv117__class_type_infoEPPv
libkonsoleapp.so.1:_ZNKSt9type_info14__is_pointer_pEv
libkonsoleapp.so.1:_ZNKSt9type_info15__is_function_pEv
libkonsoleapp.so.1:_ZNSt10bad_typeidD0Ev
libkonsoleapp.so.1:_ZNSt10bad_typeidD1Ev
libkonsoleapp.so.1:_ZNSt10bad_typeidD2Ev
libkonsoleapp.so.1:_ZNSt11logic_errorC1EOS_
libkonsoleapp.so.1:_ZNSt11logic_errorC1EPKc
libkonsoleapp.so.1:_ZNSt11logic_errorC1ERKNSt7__cxx1112basic_stringIcSt11char_traitsIcESaIcEEE
libkonsoleapp.so.1:_ZNSt11logic_errorC1ERKS_
libkonsoleapp.so.1:_ZNSt11logic_errorC1ERKSs
libkonsoleapp.so.1:_ZNSt11logic_errorC2EOS_
libkonsoleapp.so.1:_ZNSt11logic_errorC2EPKc
libkonsoleapp.so.1:_ZNSt11logic_errorC2ERKNSt7__cxx1112basic_stringIcSt11char_traitsIcESaIcEEE
libkonsoleapp.so.1:_ZNSt11logic_errorC2ERKS_
libkonsoleapp.so.1:_ZNSt11logic_errorC2ERKSs
libkonsoleapp.so.1:_ZNSt11logic_errorD0Ev
libkonsoleapp.so.1:_ZNSt11logic_errorD1Ev
libkonsoleapp.so.1:_ZNSt11logic_errorD2Ev
libkonsoleapp.so.1:_ZNSt11logic_erroraSEOS_
libkonsoleapp.so.1:_ZNSt11logic_erroraSERKS_
libkonsoleapp.so.1:_ZNSt11range_errorC1EPKc
libkonsoleapp.so.1:_ZNSt11range_errorC1ERKNSt7__cxx1112basic_stringIcSt11char_traitsIcESaIcEEE
libkonsoleapp.so.1:_ZNSt11range_errorC1ERKSs
libkonsoleapp.so.1:_ZNSt11range_errorC2EPKc
libkonsoleapp.so.1:_ZNSt11range_errorC2ERKNSt7__cxx1112basic_stringIcSt11char_traitsIcESaIcEEE
libkonsoleapp.so.1:_ZNSt11range_errorC2ERKSs
libkonsoleapp.so.1:_ZNSt11range_errorD0Ev
libkonsoleapp.so.1:_ZNSt11range_errorD1Ev
libkonsoleapp.so.1:_ZNSt11range_errorD2Ev
libkonsoleapp.so.1:_ZNSt12__cow_stringC1EOS_
libkonsoleapp.so.1:_ZNSt12__cow_stringC1EPKcm
libkonsoleapp.so.1:_ZNSt12__cow_stringC1ERKNSt7__cxx1112basic_stringIcSt11char_traitsIcESaIcEEE
libkonsoleapp.so.1:_ZNSt12__cow_stringC1ERKS_
libkonsoleapp.so.1:_ZNSt12__cow_stringC1ERKSs
libkonsoleapp.so.1:_ZNSt12__cow_stringC1Ev
libkonsoleapp.so.1:_ZNSt12__cow_stringC2EOS_
libkonsoleapp.so.1:_ZNSt12__cow_stringC2EPKcm
libkonsoleapp.so.1:_ZNSt12__cow_stringC2ERKNSt7__cxx1112basic_stringIcSt11char_traitsIcESaIcEEE
libkonsoleapp.so.1:_ZNSt12__cow_stringC2ERKS_
libkonsoleapp.so.1:_ZNSt12__cow_stringC2ERKSs
libkonsoleapp.so.1:_ZNSt12__cow_stringC2Ev
libkonsoleapp.so.1:_ZNSt12__cow_stringD1Ev
libkonsoleapp.so.1:_ZNSt12__cow_stringD2Ev
libkonsoleapp.so.1:_ZNSt12__cow_stringaSEOS_
libkonsoleapp.so.1:_ZNSt12__cow_stringaSERKS_
libkonsoleapp.so.1:_ZNSt12__sso_stringC1EOS_
libkonsoleapp.so.1:_ZNSt12__sso_stringC1EPKcm
libkonsoleapp.so.1:_ZNSt12__sso_stringC1ERKNSt7__cxx1112basic_stringIcSt11char_traitsIcESaIcEEE
libkonsoleapp.so.1:_ZNSt12__sso_stringC1ERKS_
libkonsoleapp.so.1:_ZNSt12__sso_stringC1ERKSs
libkonsoleapp.so.1:_ZNSt12__sso_stringC1Ev
libkonsoleapp.so.1:_ZNSt12__sso_stringC2EOS_
libkonsoleapp.so.1:_ZNSt12__sso_stringC2EPKcm
libkonsoleapp.so.1:_ZNSt12__sso_stringC2ERKNSt7__cxx1112basic_stringIcSt11char_traitsIcESaIcEEE
libkonsoleapp.so.1:_ZNSt12__sso_stringC2ERKS_
libkonsoleapp.so.1:_ZNSt12__sso_stringC2ERKSs
libkonsoleapp.so.1:_ZNSt12__sso_stringC2Ev
libkonsoleapp.so.1:_ZNSt12__sso_stringD1Ev
libkonsoleapp.so.1:_ZNSt12__sso_stringD2Ev
libkonsoleapp.so.1:_ZNSt12__sso_stringaSEOS_
libkonsoleapp.so.1:_ZNSt12__sso_stringaSERKS_
libkonsoleapp.so.1:_ZNSt12domain_errorC1EPKc
libkonsoleapp.so.1:_ZNSt12domain_errorC1ERKNSt7__cxx1112basic_stringIcSt11char_traitsIcESaIcEEE
libkonsoleapp.so.1:_ZNSt12domain_errorC1ERKSs
libkonsoleapp.so.1:_ZNSt12domain_errorC2EPKc
libkonsoleapp.so.1:_ZNSt12domain_errorC2ERKNSt7__cxx1112basic_stringIcSt11char_traitsIcESaIcEEE
libkonsoleapp.so.1:_ZNSt12domain_errorC2ERKSs
libkonsoleapp.so.1:_ZNSt12domain_errorD0Ev
libkonsoleapp.so.1:_ZNSt12domain_errorD1Ev
libkonsoleapp.so.1:_ZNSt12domain_errorD2Ev
libkonsoleapp.so.1:_ZNSt12future_errorD0Ev
libkonsoleapp.so.1:_ZNSt12future_errorD1Ev
libkonsoleapp.so.1:_ZNSt12future_errorD2Ev
libkonsoleapp.so.1:_ZNSt12length_errorC1EPKc
libkonsoleapp.so.1:_ZNSt12length_errorC1ERKNSt7__cxx1112basic_stringIcSt11char_traitsIcESaIcEEE
libkonsoleapp.so.1:_ZNSt12length_errorC1ERKSs
libkonsoleapp.so.1:_ZNSt12length_errorC2EPKc
libkonsoleapp.so.1:_ZNSt12length_errorC2ERKNSt7__cxx1112basic_stringIcSt11char_traitsIcESaIcEEE
libkonsoleapp.so.1:_ZNSt12length_errorC2ERKSs
libkonsoleapp.so.1:_ZNSt12length_errorD0Ev
libkonsoleapp.so.1:_ZNSt12length_errorD1Ev
libkonsoleapp.so.1:_ZNSt12length_errorD2Ev
libkonsoleapp.so.1:_ZNSt12out_of_rangeC1EPKc
libkonsoleapp.so.1:_ZNSt12out_of_rangeC1ERKNSt7__cxx1112basic_stringIcSt11char_traitsIcESaIcEEE
libkonsoleapp.so.1:_ZNSt12out_of_rangeC1ERKSs
libkonsoleapp.so.1:_ZNSt12out_of_rangeC2EPKc
libkonsoleapp.so.1:_ZNSt12out_of_rangeC2ERKNSt7__cxx1112basic_stringIcSt11char_traitsIcESaIcEEE
libkonsoleapp.so.1:_ZNSt12out_of_rangeC2ERKSs
libkonsoleapp.so.1:_ZNSt12out_of_rangeD0Ev
libkonsoleapp.so.1:_ZNSt12out_of_rangeD1Ev
libkonsoleapp.so.1:_ZNSt12out_of_rangeD2Ev
libkonsoleapp.so.1:_ZNSt12system_errorD0Ev
libkonsoleapp.so.1:_ZNSt12system_errorD1Ev
libkonsoleapp.so.1:_ZNSt12system_errorD2Ev
libkonsoleapp.so.1:_ZNSt13__future_base12_Result_baseC1Ev
libkonsoleapp.so.1:_ZNSt13__future_base12_Result_baseC2Ev
libkonsoleapp.so.1:_ZNSt13__future_base12_Result_baseD0Ev
libkonsoleapp.so.1:_ZNSt13__future_base12_Result_baseD1Ev
libkonsoleapp.so.1:_ZNSt13__future_base12_Result_baseD2Ev
libkonsoleapp.so.1:_ZNSt13__future_base13_State_baseV211_Make_ready6_M_setEv
libkonsoleapp.so.1:_ZNSt13__future_base13_State_baseV211_Make_ready6_S_runEPv
libkonsoleapp.so.1:_ZNSt13bad_exceptionD0Ev
libkonsoleapp.so.1:_ZNSt13bad_exceptionD1Ev
libkonsoleapp.so.1:_ZNSt13bad_exceptionD2Ev
libkonsoleapp.so.1:_ZNSt13random_device14_M_init_pretr1ERKNSt7__cxx1112basic_stringIcSt11char_traitsIcESaIcEEE
libkonsoleapp.so.1:_ZNSt13random_device14_M_init_pretr1ERKSs
libkonsoleapp.so.1:_ZNSt13random_device16_M_getval_pretr1Ev
libkonsoleapp.so.1:_ZNSt13random_device7_M_finiEv
libkonsoleapp.so.1:_ZNSt13random_device7_M_initEPKcm
libkonsoleapp.so.1:_ZNSt13random_device7_M_initERKNSt7__cxx1112basic_stringIcSt11char_traitsIcESaIcEEE
libkonsoleapp.so.1:_ZNSt13random_device7_M_initERKSs
libkonsoleapp.so.1:_ZNSt13random_device9_M_getvalEv
libkonsoleapp.so.1:_ZNSt13runtime_errorC1EOS_
libkonsoleapp.so.1:_ZNSt13runtime_errorC1EPKc
libkonsoleapp.so.1:_ZNSt13runtime_errorC1ERKNSt7__cxx1112basic_stringIcSt11char_traitsIcESaIcEEE
libkonsoleapp.so.1:_ZNSt13runtime_errorC1ERKS_
libkonsoleapp.so.1:_ZNSt13runtime_errorC1ERKSs
libkonsoleapp.so.1:_ZNSt13runtime_errorC2EOS_
libkonsoleapp.so.1:_ZNSt13runtime_errorC2EPKc
libkonsoleapp.so.1:_ZNSt13runtime_errorC2ERKNSt7__cxx1112basic_stringIcSt11char_traitsIcESaIcEEE
libkonsoleapp.so.1:_ZNSt13runtime_errorC2ERKS_
libkonsoleapp.so.1:_ZNSt13runtime_errorC2ERKSs
libkonsoleapp.so.1:_ZNSt13runtime_errorD0Ev
libkonsoleapp.so.1:_ZNSt13runtime_errorD1Ev
libkonsoleapp.so.1:_ZNSt13runtime_errorD2Ev
libkonsoleapp.so.1:_ZNSt13runtime_erroraSEOS_
libkonsoleapp.so.1:_ZNSt13runtime_erroraSERKS_
libkonsoleapp.so.1:_ZNSt14overflow_errorC1EPKc
libkonsoleapp.so.1:_ZNSt14overflow_errorC1ERKNSt7__cxx1112basic_stringIcSt11char_traitsIcESaIcEEE
libkonsoleapp.so.1:_ZNSt14overflow_errorC1ERKSs
libkonsoleapp.so.1:_ZNSt14overflow_errorC2EPKc
libkonsoleapp.so.1:_ZNSt14overflow_errorC2ERKNSt7__cxx1112basic_stringIcSt11char_traitsIcESaIcEEE
libkonsoleapp.so.1:_ZNSt14overflow_errorC2ERKSs
libkonsoleapp.so.1:_ZNSt14overflow_errorD0Ev
libkonsoleapp.so.1:_ZNSt14overflow_errorD1Ev
libkonsoleapp.so.1:_ZNSt14overflow_errorD2Ev
libkonsoleapp.so.1:_ZNSt15__exception_ptr13exception_ptr10_M_releaseEv
libkonsoleapp.so.1:_ZNSt15__exception_ptr13exception_ptr18_M_safe_bool_dummyEv
libkonsoleapp.so.1:_ZNSt15__exception_ptr13exception_ptr9_M_addrefEv
libkonsoleapp.so.1:_ZNSt15__exception_ptr13exception_ptrC1EMS0_FvvE
libkonsoleapp.so.1:_ZNSt15__exception_ptr13exception_ptrC1EPv
libkonsoleapp.so.1:_ZNSt15__exception_ptr13exception_ptrC2EMS0_FvvE
libkonsoleapp.so.1:_ZNSt15__exception_ptr13exception_ptrC2EPv
libkonsoleapp.so.1:_ZNSt15underflow_errorC1EPKc
libkonsoleapp.so.1:_ZNSt15underflow_errorC1ERKNSt7__cxx1112basic_stringIcSt11char_traitsIcESaIcEEE
libkonsoleapp.so.1:_ZNSt15underflow_errorC1ERKSs
libkonsoleapp.so.1:_ZNSt15underflow_errorC2EPKc
libkonsoleapp.so.1:_ZNSt15underflow_errorC2ERKNSt7__cxx1112basic_stringIcSt11char_traitsIcESaIcEEE
libkonsoleapp.so.1:_ZNSt15underflow_errorC2ERKSs
libkonsoleapp.so.1:_ZNSt15underflow_errorD0Ev
libkonsoleapp.so.1:_ZNSt15underflow_errorD1Ev
libkonsoleapp.so.1:_ZNSt15underflow_errorD2Ev
libkonsoleapp.so.1:_ZNSt16invalid_argumentC1EPKc
libkonsoleapp.so.1:_ZNSt16invalid_argumentC1ERKNSt7__cxx1112basic_stringIcSt11char_traitsIcESaIcEEE
libkonsoleapp.so.1:_ZNSt16invalid_argumentC1ERKSs
libkonsoleapp.so.1:_ZNSt16invalid_argumentC2EPKc
libkonsoleapp.so.1:_ZNSt16invalid_argumentC2ERKNSt7__cxx1112basic_stringIcSt11char_traitsIcESaIcEEE
libkonsoleapp.so.1:_ZNSt16invalid_argumentC2ERKSs
libkonsoleapp.so.1:_ZNSt16invalid_argumentD0Ev
libkonsoleapp.so.1:_ZNSt16invalid_argumentD1Ev
libkonsoleapp.so.1:_ZNSt16invalid_argumentD2Ev
libkonsoleapp.so.1:_ZNSt17bad_function_callD0Ev
libkonsoleapp.so.1:_ZNSt17bad_function_callD1Ev
libkonsoleapp.so.1:_ZNSt17bad_function_callD2Ev
libkonsoleapp.so.1:_ZNSt18condition_variable10notify_allEv
libkonsoleapp.so.1:_ZNSt18condition_variable10notify_oneEv
libkonsoleapp.so.1:_ZNSt18condition_variable4waitERSt11unique_lockISt5mutexE
libkonsoleapp.so.1:_ZNSt18condition_variableC1Ev
libkonsoleapp.so.1:_ZNSt18condition_variableC2Ev
libkonsoleapp.so.1:_ZNSt18condition_variableD1Ev
libkonsoleapp.so.1:_ZNSt18condition_variableD2Ev
libkonsoleapp.so.1:_ZNSt20bad_array_new_lengthD0Ev
libkonsoleapp.so.1:_ZNSt20bad_array_new_lengthD1Ev
libkonsoleapp.so.1:_ZNSt20bad_array_new_lengthD2Ev
libkonsoleapp.so.1:_ZNSt28__atomic_futex_unsigned_base19_M_futex_notify_allEPj
libkonsoleapp.so.1:_ZNSt28__atomic_futex_unsigned_base19_M_futex_wait_untilEPjjbNSt6chrono8durationIlSt5ratioILl1ELl1EEEENS2_IlS3_ILl1ELl1000000000EEEE
libkonsoleapp.so.1:_ZNSt28__atomic_futex_unsigned_base26_M_futex_wait_until_steadyEPjjbNSt6chrono8durationIlSt5ratioILl1ELl1EEEENS2_IlS3_ILl1ELl1000000000EEEE
libkonsoleapp.so.1:_ZNSt3_V214error_categoryD0Ev
libkonsoleapp.so.1:_ZNSt3_V214error_categoryD1Ev
libkonsoleapp.so.1:_ZNSt3_V214error_categoryD2Ev
libkonsoleapp.so.1:_ZNSt3_V215system_categoryEv
libkonsoleapp.so.1:_ZNSt3_V216generic_categoryEv
libkonsoleapp.so.1:_ZNSt8bad_castD0Ev
libkonsoleapp.so.1:_ZNSt8bad_castD1Ev
libkonsoleapp.so.1:_ZNSt8bad_castD2Ev
libkonsoleapp.so.1:_ZNSt9bad_allocD0Ev
libkonsoleapp.so.1:_ZNSt9bad_allocD1Ev
libkonsoleapp.so.1:_ZNSt9bad_allocD2Ev
libkonsoleapp.so.1:_ZNSt9exceptionD0Ev
libkonsoleapp.so.1:_ZNSt9exceptionD1Ev
libkonsoleapp.so.1:_ZNSt9exceptionD2Ev
libkonsoleapp.so.1:_ZNSt9type_infoD0Ev
libkonsoleapp.so.1:_ZNSt9type_infoD1Ev
libkonsoleapp.so.1:_ZNSt9type_infoD2Ev
libkonsoleapp.so.1:_ZSt10unexpectedv
libkonsoleapp.so.1:_ZSt13get_terminatev
libkonsoleapp.so.1:_ZSt13set_terminatePFvvE
libkonsoleapp.so.1:_ZSt14get_unexpectedv
libkonsoleapp.so.1:_ZSt14set_unexpectedPFvvE
libkonsoleapp.so.1:_ZSt15future_categoryv
libkonsoleapp.so.1:_ZSt15get_new_handlerv
libkonsoleapp.so.1:_ZSt15set_new_handlerPFvvE
libkonsoleapp.so.1:_ZSt16__at_thread_exitPSt20__at_thread_exit_elt
libkonsoleapp.so.1:_ZSt16__throw_bad_castv
libkonsoleapp.so.1:_ZSt17__throw_bad_allocv
libkonsoleapp.so.1:_ZSt17current_exceptionv
libkonsoleapp.so.1:_ZSt17rethrow_exceptionNSt15__exception_ptr13exception_ptrE
libkonsoleapp.so.1:_ZSt18__throw_bad_typeidv
libkonsoleapp.so.1:_ZSt18uncaught_exceptionv
libkonsoleapp.so.1:_ZSt19__throw_logic_errorPKc
libkonsoleapp.so.1:_ZSt19__throw_range_errorPKc
libkonsoleapp.so.1:_ZSt19uncaught_exceptionsv
libkonsoleapp.so.1:_ZSt20__throw_domain_errorPKc
libkonsoleapp.so.1:_ZSt20__throw_future_errori
libkonsoleapp.so.1:_ZSt20__throw_length_errorPKc
libkonsoleapp.so.1:_ZSt20__throw_out_of_rangePKc
libkonsoleapp.so.1:_ZSt20__throw_system_errori
libkonsoleapp.so.1:_ZSt21__throw_bad_exceptionv
libkonsoleapp.so.1:_ZSt21__throw_runtime_errorPKc
libkonsoleapp.so.1:_ZSt22__throw_overflow_errorPKc
libkonsoleapp.so.1:_ZSt23__throw_underflow_errorPKc
libkonsoleapp.so.1:_ZSt24__throw_invalid_argumentPKc
libkonsoleapp.so.1:_ZSt24__throw_out_of_range_fmtPKcz
libkonsoleapp.so.1:_ZSt25__throw_bad_function_callv
libkonsoleapp.so.1:_ZSt25notify_all_at_thread_exitRSt18condition_variableSt11unique_lockISt5mutexE
libkonsoleapp.so.1:_ZSt28__throw_bad_array_new_lengthv
libkonsoleapp.so.1:_ZSt9terminatev
libkonsoleapp.so.1:_ZThn56_N7Konsole17SessionControllerD0Ev
libkonsoleapp.so.1:_ZThn56_N7Konsole17SessionControllerD1Ev
libkonsoleapp.so.1:_ZdaPv
libkonsoleapp.so.1:_ZdlPv
libkonsoleapp.so.1:_ZdlPvm
libkonsoleapp.so.1:_Znam
libkonsoleapp.so.1:_Znwm
libkonsoleapp.so.1:_ZnwmRKSt9nothrow_t
libkonsoleapp.so.1:__cxa_allocate_dependent_exception
libkonsoleapp.so.1:__cxa_allocate_exception
libkonsoleapp.so.1:__cxa_begin_catch
libkonsoleapp.so.1:__cxa_call_terminate
libkonsoleapp.so.1:__cxa_call_unexpected
libkonsoleapp.so.1:__cxa_current_exception_type
libkonsoleapp.so.1:__cxa_demangle
libkonsoleapp.so.1:__cxa_end_catch
libkonsoleapp.so.1:__cxa_free_dependent_exception
libkonsoleapp.so.1:__cxa_free_exception
libkonsoleapp.so.1:__cxa_get_exception_ptr
libkonsoleapp.so.1:__cxa_get_globals
libkonsoleapp.so.1:__cxa_get_globals_fast
libkonsoleapp.so.1:__cxa_guard_abort
libkonsoleapp.so.1:__cxa_guard_acquire
libkonsoleapp.so.1:__cxa_guard_release
libkonsoleapp.so.1:__cxa_init_primary_exception
libkonsoleapp.so.1:__cxa_rethrow
libkonsoleapp.so.1:__cxa_throw
libkonsoleapp.so.1:__dynamic_cast
libkonsoleapp.so.1:__gcclibcxx_demangle_callback
libkonsoleapp.so.1:__gxx_personality_v0
